target datalayout = "e-m:e-p270:32:32-p271:32:32-p272:64:64-i64:64-i128:128-f80:128-n8:16:32:64-S128"
target triple = "x86_64-pc-linux-gnu"

%"class.std::__exception_ptr::exception_ptr" = type { ptr }
%"class.std::runtime_error" = type { %"class.std::exception", %"struct.std::__cow_string" }
%"class.std::exception" = type { ptr }
%"struct.std::__cow_string" = type { %union.anon }
%union.anon = type { ptr }
%"class.faiss::FaissException" = type { %"class.std::exception", %"class.std::__cxx11::basic_string" }
%"class.std::__cxx11::basic_string" = type { %"struct.std::__cxx11::basic_string<char>::_Alloc_hider", i64, %union.anon.0 }
%"struct.std::__cxx11::basic_string<char>::_Alloc_hider" = type { ptr }
%union.anon.0 = type { i64, [8 x i8] }

@_ZTIN5faiss14FaissExceptionE = external constant ptr
@_ZTISt9exception = external constant ptr
@.str = private unnamed_addr constant [14 x i8] c"Unknown error\00", align 1
@faiss_last_exception = external thread_local global %"class.std::__exception_ptr::exception_ptr", align 8
@_ZTVSt9exception = available_externally unnamed_addr constant { [5 x ptr] } { [5 x ptr] [ptr null, ptr @_ZTISt9exception, ptr @_ZNSt9exceptionD1Ev, ptr @_ZNSt9exceptionD0Ev, ptr @_ZNKSt9exception4whatEv] }, align 8

; Function Attrs: inlinehint mustprogress nounwind uwtable
define linkonce_odr void @_ZNSt15__exception_ptr13exception_ptr4swapERS0_(ptr noundef nonnull align 8 dereferenceable(8) %0, ptr noundef nonnull align 8 dereferenceable(8) %1) #9 comdat align 2 {
  %3 = alloca ptr, align 8
  %4 = alloca ptr, align 8
  %5 = alloca ptr, align 8
  store ptr %0, ptr %3, align 8, !tbaa !30
  store ptr %1, ptr %4, align 8, !tbaa !30
  %6 = load ptr, ptr %3, align 8
  call void @llvm.lifetime.start.p0(i64 8, ptr %5) #3
  %7 = getelementptr inbounds nuw %"class.std::__exception_ptr::exception_ptr", ptr %6, i32 0, i32 0
  %8 = load ptr, ptr %7, align 8, !tbaa !32
  store ptr %8, ptr %5, align 8, !tbaa !29
  %9 = load ptr, ptr %4, align 8, !tbaa !30
  %10 = getelementptr inbounds nuw %"class.std::__exception_ptr::exception_ptr", ptr %9, i32 0, i32 0
  %11 = load ptr, ptr %10, align 8, !tbaa !32
  %12 = getelementptr inbounds nuw %"class.std::__exception_ptr::exception_ptr", ptr %6, i32 0, i32 0
  store ptr %11, ptr %12, align 8, !tbaa !32
  %13 = load ptr, ptr %5, align 8, !tbaa !29
  %14 = load ptr, ptr %4, align 8, !tbaa !30
  %15 = getelementptr inbounds nuw %"class.std::__exception_ptr::exception_ptr", ptr %14, i32 0, i32 0
  store ptr %13, ptr %15, align 8, !tbaa !32
  call void @llvm.lifetime.end.p0(i64 8, ptr %5) #3
  ret void
}

; Function Attrs: mustprogress nounwind uwtable
define linkonce_odr void @_ZNSt15__exception_ptr13exception_ptrC2EOS0_(ptr noundef nonnull align 8 dereferenceable(8) %0, ptr noundef nonnull align 8 dereferenceable(8) %1) unnamed_addr #4 comdat align 2 {
  %3 = alloca ptr, align 8
  %4 = alloca ptr, align 8
  store ptr %0, ptr %3, align 8, !tbaa !30
  store ptr %1, ptr %4, align 8, !tbaa !30
  %5 = load ptr, ptr %3, align 8
  %6 = getelementptr inbounds nuw %"class.std::__exception_ptr::exception_ptr", ptr %5, i32 0, i32 0
  %7 = load ptr, ptr %4, align 8, !tbaa !30
  %8 = getelementptr inbounds nuw %"class.std::__exception_ptr::exception_ptr", ptr %7, i32 0, i32 0
  %9 = load ptr, ptr %8, align 8, !tbaa !32
  store ptr %9, ptr %6, align 8, !tbaa !32
  %10 = load ptr, ptr %4, align 8, !tbaa !30
  %11 = getelementptr inbounds nuw %"class.std::__exception_ptr::exception_ptr", ptr %10, i32 0, i32 0
  store ptr null, ptr %11, align 8, !tbaa !32
  ret void
}

; Function Attrs: mustprogress nounwind uwtable
define linkonce_odr void @_ZNSt9exceptionC2ERKS_(ptr noundef nonnull align 8 dereferenceable(8) %0, ptr noundef nonnull align 8 dereferenceable(8) %1) unnamed_addr #4 comdat align 2 {
  %3 = alloca ptr, align 8
  %4 = alloca ptr, align 8
  store ptr %0, ptr %3, align 8, !tbaa !16
  store ptr %1, ptr %4, align 8, !tbaa !16
  %5 = load ptr, ptr %3, align 8
  store ptr getelementptr inbounds inrange(-16, 24) ({ [5 x ptr] }, ptr @_ZTVSt9exception, i32 0, i32 0, i32 2), ptr %5, align 8, !tbaa !8
  ret void
}

; Function Attrs: inlinehint mustprogress nounwind uwtable
define linkonce_odr void @_ZNSt15__exception_ptr13exception_ptrD2Ev(ptr noundef nonnull align 8 dereferenceable(8) %0) unnamed_addr #9 comdat align 2 {
  %2 = alloca ptr, align 8
  store ptr %0, ptr %2, align 8, !tbaa !30
  %3 = load ptr, ptr %2, align 8
  %4 = getelementptr inbounds nuw %"class.std::__exception_ptr::exception_ptr", ptr %3, i32 0, i32 0
  %5 = load ptr, ptr %4, align 8, !tbaa !32
  %6 = icmp ne ptr %5, null
  br i1 %6, label %7, label %8

7:                                                ; preds = %1
  call void @_ZNSt15__exception_ptr13exception_ptr10_M_releaseEv(ptr noundef nonnull align 8 dereferenceable(8) %3) #3
  br label %8

8:                                                ; preds = %7, %1
  ret void
}

; Function Attrs: mustprogress nounwind uwtable
define linkonce_odr noundef nonnull align 8 dereferenceable(8) ptr @_ZNSt15__exception_ptr13exception_ptraSEOS0_(ptr noundef nonnull align 8 dereferenceable(8) %0, ptr noundef nonnull align 8 dereferenceable(8) %1) #4 comdat align 2 {
  %3 = alloca ptr, align 8
  %4 = alloca ptr, align 8
  %5 = alloca %"class.std::__exception_ptr::exception_ptr", align 8
  store ptr %0, ptr %3, align 8, !tbaa !30
  store ptr %1, ptr %4, align 8, !tbaa !30
  %6 = load ptr, ptr %3, align 8
  call void @llvm.lifetime.start.p0(i64 8, ptr %5) #3
  %7 = load ptr, ptr %4, align 8, !tbaa !30
  call void @_ZNSt15__exception_ptr13exception_ptrC2EOS0_(ptr noundef nonnull align 8 dereferenceable(8) %5, ptr noundef nonnull align 8 dereferenceable(8) %7) #3
  call void @_ZNSt15__exception_ptr13exception_ptr4swapERS0_(ptr noundef nonnull align 8 dereferenceable(8) %5, ptr noundef nonnull align 8 dereferenceable(8) %6) #3
  call void @_ZNSt15__exception_ptr13exception_ptrD2Ev(ptr noundef nonnull align 8 dereferenceable(8) %5) #3
  call void @llvm.lifetime.end.p0(i64 8, ptr %5) #3
  ret ptr %6
}

; Function Attrs: uwtable
define linkonce_odr hidden noundef ptr @_ZTW20faiss_last_exception() #11 comdat {
  %1 = icmp ne ptr @_ZTH20faiss_last_exception, null
  br i1 %1, label %2, label %3

2:                                                ; preds = %0
  call void @_ZTH20faiss_last_exception()
  br label %3

3:                                                ; preds = %2, %0
  %4 = call align 8 ptr @llvm.threadlocal.address.p0(ptr align 8 @faiss_last_exception)
  ret ptr %4
}

; Function Attrs: mustprogress uwtable
define i32 @faiss_IndexIVF_copy_subset_to(ptr noundef %0, ptr noundef %1, i32 noundef %2, i64 noundef %3, i64 noundef %4) #6 personality ptr @__gxx_personality_v0 {
  %6 = alloca i32, align 4
  %7 = alloca ptr, align 8
  %8 = alloca ptr, align 8
  %9 = alloca i32, align 4
  %10 = alloca i64, align 8
  %11 = alloca i64, align 8
  %12 = alloca ptr, align 8
  %13 = alloca i32, align 4
  %14 = alloca %"class.std::__exception_ptr::exception_ptr", align 8
  %15 = alloca %"class.std::runtime_error", align 8
  %16 = alloca ptr, align 8
  %17 = alloca %"class.std::__exception_ptr::exception_ptr", align 8
  %18 = alloca %"class.std::exception", align 8
  %19 = alloca ptr, align 8
  %20 = alloca %"class.std::__exception_ptr::exception_ptr", align 8
  %21 = alloca %"class.faiss::FaissException", align 8
  store ptr %0, ptr %7, align 8, !tbaa !38
  store ptr %1, ptr %8, align 8, !tbaa !38
  store i32 %2, ptr %9, align 4, !tbaa !53
  store i64 %3, ptr %10, align 8, !tbaa !36
  store i64 %4, ptr %11, align 8, !tbaa !36
  %22 = load ptr, ptr %7, align 8, !tbaa !38
  %23 = load ptr, ptr %8, align 8, !tbaa !38
  %24 = load i32, ptr %9, align 4, !tbaa !53
  %25 = load i64, ptr %10, align 8, !tbaa !36
  %26 = load i64, ptr %11, align 8, !tbaa !36
  %27 = load ptr, ptr %22, align 8, !tbaa !8
  %28 = getelementptr inbounds ptr, ptr %27, i64 33
  %29 = load ptr, ptr %28, align 8
  invoke void %29(ptr noundef nonnull align 8 dereferenceable(265) %22, ptr noundef nonnull align 8 dereferenceable(265) %23, i32 noundef %24, i64 noundef %25, i64 noundef %26)
          to label %30 unwind label %31

30:                                               ; preds = %5
  br label %71

31:                                               ; preds = %5
  %32 = landingpad { ptr, i32 }
          catch ptr @_ZTIN5faiss14FaissExceptionE
          catch ptr @_ZTISt9exception
          catch ptr null
  %33 = extractvalue { ptr, i32 } %32, 0
  store ptr %33, ptr %12, align 8
  %34 = extractvalue { ptr, i32 } %32, 1
  store i32 %34, ptr %13, align 4
  br label %35

35:                                               ; preds = %31
  %36 = load i32, ptr %13, align 4
  %37 = call i32 @llvm.eh.typeid.for.p0(ptr @_ZTIN5faiss14FaissExceptionE) #3
  %38 = icmp eq i32 %36, %37
  br i1 %38, label %39, label %46

39:                                               ; preds = %35
  call void @llvm.lifetime.start.p0(i64 8, ptr %19) #3
  %40 = load ptr, ptr %12, align 8
  %41 = call ptr @__cxa_begin_catch(ptr %40) #3
  store ptr %41, ptr %19, align 8
  call void @llvm.lifetime.start.p0(i64 8, ptr %20) #3
  %42 = load ptr, ptr %19, align 8, !tbaa !14
  invoke void @_ZN5faiss14FaissExceptionC2ERKS0_(ptr noundef nonnull align 8 dereferenceable(40) %21, ptr noundef nonnull align 8 dereferenceable(40) %42)
          to label %43 unwind label %66

43:                                               ; preds = %39
  call void @_ZSt18make_exception_ptrIN5faiss14FaissExceptionEENSt15__exception_ptr13exception_ptrET_(ptr dead_on_unwind writable sret(%"class.std::__exception_ptr::exception_ptr") align 8 %20, ptr noundef %21) #3
  %44 = call ptr @_ZTW20faiss_last_exception()
  %45 = call noundef nonnull align 8 dereferenceable(8) ptr @_ZNSt15__exception_ptr13exception_ptraSEOS0_(ptr noundef nonnull align 8 dereferenceable(8) %44, ptr noundef nonnull align 8 dereferenceable(8) %20) #3
  call void @_ZNSt15__exception_ptr13exception_ptrD2Ev(ptr noundef nonnull align 8 dereferenceable(8) %20) #3
  call void @_ZN5faiss14FaissExceptionD2Ev(ptr noundef nonnull align 8 dereferenceable(40) %21) #3
  call void @llvm.lifetime.end.p0(i64 8, ptr %20) #3
  store i32 -2, ptr %6, align 4
  call void @__cxa_end_catch()
  call void @llvm.lifetime.end.p0(i64 8, ptr %19) #3
  br label %72

46:                                               ; preds = %35
  %47 = call i32 @llvm.eh.typeid.for.p0(ptr @_ZTISt9exception) #3
  %48 = icmp eq i32 %36, %47
  br i1 %48, label %49, label %55

49:                                               ; preds = %46
  call void @llvm.lifetime.start.p0(i64 8, ptr %16) #3
  %50 = load ptr, ptr %12, align 8
  %51 = call ptr @__cxa_begin_catch(ptr %50) #3
  store ptr %51, ptr %16, align 8
  call void @llvm.lifetime.start.p0(i64 8, ptr %17) #3
  %52 = load ptr, ptr %16, align 8, !tbaa !16
  call void @_ZNSt9exceptionC2ERKS_(ptr noundef nonnull align 8 dereferenceable(8) %18, ptr noundef nonnull align 8 dereferenceable(8) %52) #3
  call void @_ZSt18make_exception_ptrISt9exceptionENSt15__exception_ptr13exception_ptrET_(ptr dead_on_unwind writable sret(%"class.std::__exception_ptr::exception_ptr") align 8 %17, ptr noundef %18) #3
  %53 = call ptr @_ZTW20faiss_last_exception()
  %54 = call noundef nonnull align 8 dereferenceable(8) ptr @_ZNSt15__exception_ptr13exception_ptraSEOS0_(ptr noundef nonnull align 8 dereferenceable(8) %53, ptr noundef nonnull align 8 dereferenceable(8) %17) #3
  call void @_ZNSt15__exception_ptr13exception_ptrD2Ev(ptr noundef nonnull align 8 dereferenceable(8) %17) #3
  call void @_ZNSt9exceptionD1Ev(ptr noundef nonnull align 8 dereferenceable(8) %18) #3
  call void @llvm.lifetime.end.p0(i64 8, ptr %17) #3
  store i32 -4, ptr %6, align 4
  call void @__cxa_end_catch()
  call void @llvm.lifetime.end.p0(i64 8, ptr %16) #3
  br label %72

55:                                               ; preds = %46
  %56 = load ptr, ptr %12, align 8
  %57 = call ptr @__cxa_begin_catch(ptr %56) #3
  call void @llvm.lifetime.start.p0(i64 8, ptr %14) #3
  invoke void @_ZNSt13runtime_errorC1EPKc(ptr noundef nonnull align 8 dereferenceable(16) %15, ptr noundef @.str)
          to label %58 unwind label %61

58:                                               ; preds = %55
  call void @_ZSt18make_exception_ptrISt13runtime_errorENSt15__exception_ptr13exception_ptrET_(ptr dead_on_unwind writable sret(%"class.std::__exception_ptr::exception_ptr") align 8 %14, ptr noundef %15) #3
  %59 = call ptr @_ZTW20faiss_last_exception()
  %60 = call noundef nonnull align 8 dereferenceable(8) ptr @_ZNSt15__exception_ptr13exception_ptraSEOS0_(ptr noundef nonnull align 8 dereferenceable(8) %59, ptr noundef nonnull align 8 dereferenceable(8) %14) #3
  call void @_ZNSt15__exception_ptr13exception_ptrD2Ev(ptr noundef nonnull align 8 dereferenceable(8) %14) #3
  call void @_ZNSt13runtime_errorD1Ev(ptr noundef nonnull align 8 dereferenceable(16) %15) #3
  call void @llvm.lifetime.end.p0(i64 8, ptr %14) #3
  store i32 -1, ptr %6, align 4
  call void @__cxa_end_catch()
  br label %72

61:                                               ; preds = %55
  %62 = landingpad { ptr, i32 }
          cleanup
  %63 = extractvalue { ptr, i32 } %62, 0
  store ptr %63, ptr %12, align 8
  %64 = extractvalue { ptr, i32 } %62, 1
  store i32 %64, ptr %13, align 4
  call void @llvm.lifetime.end.p0(i64 8, ptr %14) #3
  invoke void @__cxa_end_catch()
          to label %65 unwind label %79

65:                                               ; preds = %61
  br label %74

66:                                               ; preds = %39
  %67 = landingpad { ptr, i32 }
          cleanup
  %68 = extractvalue { ptr, i32 } %67, 0
  store ptr %68, ptr %12, align 8
  %69 = extractvalue { ptr, i32 } %67, 1
  store i32 %69, ptr %13, align 4
  call void @llvm.lifetime.end.p0(i64 8, ptr %20) #3
  invoke void @__cxa_end_catch()
          to label %70 unwind label %79

70:                                               ; preds = %66
  call void @llvm.lifetime.end.p0(i64 8, ptr %19) #3
  br label %74

71:                                               ; preds = %30
  store i32 0, ptr %6, align 4
  br label %72

72:                                               ; preds = %71, %43, %49, %58
  %73 = load i32, ptr %6, align 4
  ret i32 %73

74:                                               ; preds = %70, %65
  %75 = load ptr, ptr %12, align 8
  %76 = load i32, ptr %13, align 4
  %77 = insertvalue { ptr, i32 } poison, ptr %75, 0
  %78 = insertvalue { ptr, i32 } %77, i32 %76, 1
  resume { ptr, i32 } %78

79:                                               ; preds = %66, %61
  %80 = landingpad { ptr, i32 }
          catch ptr null
  %81 = extractvalue { ptr, i32 } %80, 0
  call void @__clang_call_terminate(ptr %81) #19
  unreachable
}